; Function Attrs: null_pointer_is_valid sspstrong uwtable
define internal i32 @dissect_lcp_qualprot_opt(ptr noundef %0, ptr noundef %1, ptr noundef %2, ptr readnone captures(none) %3) #1 {
  %5 = alloca ptr, align 8
  %6 = alloca ptr, align 8
  %7 = alloca i32, align 4
  call void @llvm.lifetime.start.p0(i64 8, ptr nonnull %5) #8
  call void @llvm.lifetime.start.p0(i64 8, ptr nonnull %6) #8
  call void @llvm.lifetime.start.p0(i64 4, ptr nonnull %7) #8
  %8 = tail call i32 @tvb_reported_length(ptr noundef %0)
  %9 = load i32, ptr @proto_lcp_option_qualprot, align 4
  %10 = load i32, ptr @ett_lcp_qualprot_opt, align 4
  %11 = call fastcc zeroext i1 @dissect_lcp_var_opt(ptr noundef %0, ptr noundef %1, ptr noundef %2, i32 noundef %9, i32 noundef %10, i32 noundef 4, ptr noundef nonnull %5, ptr noundef nonnull %6)
  br i1 %11, label %14, label %12

12:                                               ; preds = %4
  %13 = tail call i32 @tvb_captured_length(ptr noundef %0)
  br label %29

14:                                               ; preds = %4
  %15 = load ptr, ptr %5, align 8
  %16 = load i32, ptr @hf_lcp_opt_quality_protocol, align 4
  %17 = call ptr @proto_tree_add_item_ret_uint(ptr noundef %15, i32 noundef %16, ptr noundef %0, i32 noundef 2, i32 noundef 2, i32 noundef 0, ptr noundef nonnull %7)
  %18 = load ptr, ptr %6, align 8
  %19 = load i32, ptr %7, align 4
  %20 = call ptr @val_to_str_ext_const(i32 noundef %19, ptr noundef nonnull @ppp_vals_ext, ptr noundef nonnull @.str.692)
  %21 = load i32, ptr %7, align 4
  call void (ptr, ptr, ...) @proto_item_append_text(ptr noundef %18, ptr noundef nonnull @.str.1324, ptr noundef %20, i32 noundef %21)
  %22 = icmp sgt i32 %8, 4
  br i1 %22, label %23, label %27

23:                                               ; preds = %14
  %24 = load i32, ptr @hf_lcp_opt_data, align 4
  %25 = add nuw i32 %8, 4
  %26 = call ptr @proto_tree_add_item(ptr noundef %15, i32 noundef %24, ptr noundef %0, i32 noundef 4, i32 noundef %25, i32 noundef 0)
  br label %27

27:                                               ; preds = %23, %14
  %28 = call i32 @tvb_captured_length(ptr noundef %0)
  br label %29

29:                                               ; preds = %27, %12
  %.0 = phi i32 [ %28, %27 ], [ %13, %12 ]
  call void @llvm.lifetime.end.p0(i64 4, ptr nonnull %7) #8
  call void @llvm.lifetime.end.p0(i64 8, ptr nonnull %6) #8
  call void @llvm.lifetime.end.p0(i64 8, ptr nonnull %5) #8
  ret i32 %.0
}